target datalayout = "e-m:e-p270:32:32-p271:32:32-p272:64:64-i64:64-i128:128-f80:128-n8:16:32:64-S128"
target triple = "x86_64-pc-linux-gnu"

%struct.NSVGshape = type { [64 x i8], %struct.NSVGpaint, %struct.NSVGpaint, float, float, float, [8 x float], i8, i8, i8, float, i8, i8, [4 x float], [64 x i8], [64 x i8], [6 x float], ptr, ptr }
%struct.NSVGpaint = type { i8, %union.anon }
%union.anon = type { ptr }
%struct.NSVGpath = type { ptr, i32, i8, [4 x float], ptr }

; Function Attrs: inlinehint nounwind uwtable
define internal float @nsvg__maxf(float noundef %0, float noundef %1) #10 {
  %3 = alloca float, align 4
  %4 = alloca float, align 4
  store float %0, ptr %3, align 4, !tbaa !23
  store float %1, ptr %4, align 4, !tbaa !23
  %5 = load float, ptr %3, align 4, !tbaa !23
  %6 = load float, ptr %4, align 4, !tbaa !23
  %7 = fcmp ogt float %5, %6
  br i1 %7, label %8, label %10

8:                                                ; preds = %2
  %9 = load float, ptr %3, align 4, !tbaa !23
  br label %12

10:                                               ; preds = %2
  %11 = load float, ptr %4, align 4, !tbaa !23
  br label %12

12:                                               ; preds = %10, %8
  %13 = phi float [ %9, %8 ], [ %11, %10 ]
  ret float %13
}

; Function Attrs: inlinehint nounwind uwtable
define internal float @nsvg__minf(float noundef %0, float noundef %1) #10 {
  %3 = alloca float, align 4
  %4 = alloca float, align 4
  store float %0, ptr %3, align 4, !tbaa !23
  store float %1, ptr %4, align 4, !tbaa !23
  %5 = load float, ptr %3, align 4, !tbaa !23
  %6 = load float, ptr %4, align 4, !tbaa !23
  %7 = fcmp olt float %5, %6
  br i1 %7, label %8, label %10

8:                                                ; preds = %2
  %9 = load float, ptr %3, align 4, !tbaa !23
  br label %12

10:                                               ; preds = %2
  %11 = load float, ptr %4, align 4, !tbaa !23
  br label %12

12:                                               ; preds = %10, %8
  %13 = phi float [ %9, %8 ], [ %11, %10 ]
  ret float %13
}

; Function Attrs: nounwind uwtable
define internal void @nsvg__xformPoint(ptr noundef %0, ptr noundef %1, float noundef %2, float noundef %3, ptr noundef %4) #0 {
  %6 = alloca ptr, align 8
  %7 = alloca ptr, align 8
  %8 = alloca float, align 4
  %9 = alloca float, align 4
  %10 = alloca ptr, align 8
  store ptr %0, ptr %6, align 8, !tbaa !77
  store ptr %1, ptr %7, align 8, !tbaa !77
  store float %2, ptr %8, align 4, !tbaa !23
  store float %3, ptr %9, align 4, !tbaa !23
  store ptr %4, ptr %10, align 8, !tbaa !77
  %11 = load float, ptr %8, align 4, !tbaa !23
  %12 = load ptr, ptr %10, align 8, !tbaa !77
  %13 = getelementptr inbounds float, ptr %12, i64 0
  %14 = load float, ptr %13, align 4, !tbaa !23
  %15 = load float, ptr %9, align 4, !tbaa !23
  %16 = load ptr, ptr %10, align 8, !tbaa !77
  %17 = getelementptr inbounds float, ptr %16, i64 2
  %18 = load float, ptr %17, align 4, !tbaa !23
  %19 = fmul float %15, %18
  %20 = call float @llvm.fmuladd.f32(float %11, float %14, float %19)
  %21 = load ptr, ptr %10, align 8, !tbaa !77
  %22 = getelementptr inbounds float, ptr %21, i64 4
  %23 = load float, ptr %22, align 4, !tbaa !23
  %24 = fadd float %20, %23
  %25 = load ptr, ptr %6, align 8, !tbaa !77
  store float %24, ptr %25, align 4, !tbaa !23
  %26 = load float, ptr %8, align 4, !tbaa !23
  %27 = load ptr, ptr %10, align 8, !tbaa !77
  %28 = getelementptr inbounds float, ptr %27, i64 1
  %29 = load float, ptr %28, align 4, !tbaa !23
  %30 = load float, ptr %9, align 4, !tbaa !23
  %31 = load ptr, ptr %10, align 8, !tbaa !77
  %32 = getelementptr inbounds float, ptr %31, i64 3
  %33 = load float, ptr %32, align 4, !tbaa !23
  %34 = fmul float %30, %33
  %35 = call float @llvm.fmuladd.f32(float %26, float %29, float %34)
  %36 = load ptr, ptr %10, align 8, !tbaa !77
  %37 = getelementptr inbounds float, ptr %36, i64 5
  %38 = load float, ptr %37, align 4, !tbaa !23
  %39 = fadd float %35, %38
  %40 = load ptr, ptr %7, align 8, !tbaa !77
  store float %39, ptr %40, align 4, !tbaa !23
  ret void
}

; Function Attrs: nounwind uwtable
define internal void @nsvg__getLocalBounds(ptr noundef %0, ptr noundef %1, ptr noundef %2) #0 {
  %4 = alloca ptr, align 8
  %5 = alloca ptr, align 8
  %6 = alloca ptr, align 8
  %7 = alloca ptr, align 8
  %8 = alloca [8 x float], align 16
  %9 = alloca [4 x float], align 16
  %10 = alloca i32, align 4
  %11 = alloca i32, align 4
  store ptr %0, ptr %4, align 8, !tbaa !77
  store ptr %1, ptr %5, align 8, !tbaa !56
  store ptr %2, ptr %6, align 8, !tbaa !77
  call void @llvm.lifetime.start.p0(i64 8, ptr %7) #11
  call void @llvm.lifetime.start.p0(i64 32, ptr %8) #11
  call void @llvm.lifetime.start.p0(i64 16, ptr %9) #11
  call void @llvm.lifetime.start.p0(i64 4, ptr %10) #11
  call void @llvm.lifetime.start.p0(i64 4, ptr %11) #11
  store i32 1, ptr %11, align 4, !tbaa !10
  %12 = load ptr, ptr %5, align 8, !tbaa !56
  %13 = getelementptr inbounds nuw %struct.NSVGshape, ptr %12, i32 0, i32 17
  %14 = load ptr, ptr %13, align 8, !tbaa !72
  store ptr %14, ptr %7, align 8, !tbaa !73
  br label %15

15:                                               ; preds = %171, %3
  %16 = load ptr, ptr %7, align 8, !tbaa !73
  %17 = icmp ne ptr %16, null
  br i1 %17, label %18, label %175

18:                                               ; preds = %15
  %19 = getelementptr inbounds [8 x float], ptr %8, i64 0, i64 0
  %20 = getelementptr inbounds [8 x float], ptr %8, i64 0, i64 1
  %21 = load ptr, ptr %7, align 8, !tbaa !73
  %22 = getelementptr inbounds nuw %struct.NSVGpath, ptr %21, i32 0, i32 0
  %23 = load ptr, ptr %22, align 8, !tbaa !76
  %24 = getelementptr inbounds float, ptr %23, i64 0
  %25 = load float, ptr %24, align 4, !tbaa !23
  %26 = load ptr, ptr %7, align 8, !tbaa !73
  %27 = getelementptr inbounds nuw %struct.NSVGpath, ptr %26, i32 0, i32 0
  %28 = load ptr, ptr %27, align 8, !tbaa !76
  %29 = getelementptr inbounds float, ptr %28, i64 1
  %30 = load float, ptr %29, align 4, !tbaa !23
  %31 = load ptr, ptr %6, align 8, !tbaa !77
  call void @nsvg__xformPoint(ptr noundef %19, ptr noundef %20, float noundef %25, float noundef %30, ptr noundef %31)
  store i32 0, ptr %10, align 4, !tbaa !10
  br label %32

32:                                               ; preds = %167, %18
  %33 = load i32, ptr %10, align 4, !tbaa !10
  %34 = load ptr, ptr %7, align 8, !tbaa !73
  %35 = getelementptr inbounds nuw %struct.NSVGpath, ptr %34, i32 0, i32 1
  %36 = load i32, ptr %35, align 8, !tbaa !74
  %37 = sub nsw i32 %36, 1
  %38 = icmp slt i32 %33, %37
  br i1 %38, label %39, label %170

39:                                               ; preds = %32
  %40 = getelementptr inbounds [8 x float], ptr %8, i64 0, i64 2
  %41 = getelementptr inbounds [8 x float], ptr %8, i64 0, i64 3
  %42 = load ptr, ptr %7, align 8, !tbaa !73
  %43 = getelementptr inbounds nuw %struct.NSVGpath, ptr %42, i32 0, i32 0
  %44 = load ptr, ptr %43, align 8, !tbaa !76
  %45 = load i32, ptr %10, align 4, !tbaa !10
  %46 = add nsw i32 %45, 1
  %47 = mul nsw i32 %46, 2
  %48 = sext i32 %47 to i64
  %49 = getelementptr inbounds float, ptr %44, i64 %48
  %50 = load float, ptr %49, align 4, !tbaa !23
  %51 = load ptr, ptr %7, align 8, !tbaa !73
  %52 = getelementptr inbounds nuw %struct.NSVGpath, ptr %51, i32 0, i32 0
  %53 = load ptr, ptr %52, align 8, !tbaa !76
  %54 = load i32, ptr %10, align 4, !tbaa !10
  %55 = add nsw i32 %54, 1
  %56 = mul nsw i32 %55, 2
  %57 = add nsw i32 %56, 1
  %58 = sext i32 %57 to i64
  %59 = getelementptr inbounds float, ptr %53, i64 %58
  %60 = load float, ptr %59, align 4, !tbaa !23
  %61 = load ptr, ptr %6, align 8, !tbaa !77
  call void @nsvg__xformPoint(ptr noundef %40, ptr noundef %41, float noundef %50, float noundef %60, ptr noundef %61)
  %62 = getelementptr inbounds [8 x float], ptr %8, i64 0, i64 4
  %63 = getelementptr inbounds [8 x float], ptr %8, i64 0, i64 5
  %64 = load ptr, ptr %7, align 8, !tbaa !73
  %65 = getelementptr inbounds nuw %struct.NSVGpath, ptr %64, i32 0, i32 0
  %66 = load ptr, ptr %65, align 8, !tbaa !76
  %67 = load i32, ptr %10, align 4, !tbaa !10
  %68 = add nsw i32 %67, 2
  %69 = mul nsw i32 %68, 2
  %70 = sext i32 %69 to i64
  %71 = getelementptr inbounds float, ptr %66, i64 %70
  %72 = load float, ptr %71, align 4, !tbaa !23
  %73 = load ptr, ptr %7, align 8, !tbaa !73
  %74 = getelementptr inbounds nuw %struct.NSVGpath, ptr %73, i32 0, i32 0
  %75 = load ptr, ptr %74, align 8, !tbaa !76
  %76 = load i32, ptr %10, align 4, !tbaa !10
  %77 = add nsw i32 %76, 2
  %78 = mul nsw i32 %77, 2
  %79 = add nsw i32 %78, 1
  %80 = sext i32 %79 to i64
  %81 = getelementptr inbounds float, ptr %75, i64 %80
  %82 = load float, ptr %81, align 4, !tbaa !23
  %83 = load ptr, ptr %6, align 8, !tbaa !77
  call void @nsvg__xformPoint(ptr noundef %62, ptr noundef %63, float noundef %72, float noundef %82, ptr noundef %83)
  %84 = getelementptr inbounds [8 x float], ptr %8, i64 0, i64 6
  %85 = getelementptr inbounds [8 x float], ptr %8, i64 0, i64 7
  %86 = load ptr, ptr %7, align 8, !tbaa !73
  %87 = getelementptr inbounds nuw %struct.NSVGpath, ptr %86, i32 0, i32 0
  %88 = load ptr, ptr %87, align 8, !tbaa !76
  %89 = load i32, ptr %10, align 4, !tbaa !10
  %90 = add nsw i32 %89, 3
  %91 = mul nsw i32 %90, 2
  %92 = sext i32 %91 to i64
  %93 = getelementptr inbounds float, ptr %88, i64 %92
  %94 = load float, ptr %93, align 4, !tbaa !23
  %95 = load ptr, ptr %7, align 8, !tbaa !73
  %96 = getelementptr inbounds nuw %struct.NSVGpath, ptr %95, i32 0, i32 0
  %97 = load ptr, ptr %96, align 8, !tbaa !76
  %98 = load i32, ptr %10, align 4, !tbaa !10
  %99 = add nsw i32 %98, 3
  %100 = mul nsw i32 %99, 2
  %101 = add nsw i32 %100, 1
  %102 = sext i32 %101 to i64
  %103 = getelementptr inbounds float, ptr %97, i64 %102
  %104 = load float, ptr %103, align 4, !tbaa !23
  %105 = load ptr, ptr %6, align 8, !tbaa !77
  call void @nsvg__xformPoint(ptr noundef %84, ptr noundef %85, float noundef %94, float noundef %104, ptr noundef %105)
  %106 = getelementptr inbounds [4 x float], ptr %9, i64 0, i64 0
  %107 = getelementptr inbounds [8 x float], ptr %8, i64 0, i64 0
  call void @nsvg__curveBounds(ptr noundef %106, ptr noundef %107)
  %108 = load i32, ptr %11, align 4, !tbaa !10
  %109 = icmp ne i32 %108, 0
  br i1 %109, label %110, label %127

110:                                              ; preds = %39
  %111 = getelementptr inbounds [4 x float], ptr %9, i64 0, i64 0
  %112 = load float, ptr %111, align 16, !tbaa !23
  %113 = load ptr, ptr %4, align 8, !tbaa !77
  %114 = getelementptr inbounds float, ptr %113, i64 0
  store float %112, ptr %114, align 4, !tbaa !23
  %115 = getelementptr inbounds [4 x float], ptr %9, i64 0, i64 1
  %116 = load float, ptr %115, align 4, !tbaa !23
  %117 = load ptr, ptr %4, align 8, !tbaa !77
  %118 = getelementptr inbounds float, ptr %117, i64 1
  store float %116, ptr %118, align 4, !tbaa !23
  %119 = getelementptr inbounds [4 x float], ptr %9, i64 0, i64 2
  %120 = load float, ptr %119, align 8, !tbaa !23
  %121 = load ptr, ptr %4, align 8, !tbaa !77
  %122 = getelementptr inbounds float, ptr %121, i64 2
  store float %120, ptr %122, align 4, !tbaa !23
  %123 = getelementptr inbounds [4 x float], ptr %9, i64 0, i64 3
  %124 = load float, ptr %123, align 4, !tbaa !23
  %125 = load ptr, ptr %4, align 8, !tbaa !77
  %126 = getelementptr inbounds float, ptr %125, i64 3
  store float %124, ptr %126, align 4, !tbaa !23
  store i32 0, ptr %11, align 4, !tbaa !10
  br label %160

127:                                              ; preds = %39
  %128 = load ptr, ptr %4, align 8, !tbaa !77
  %129 = getelementptr inbounds float, ptr %128, i64 0
  %130 = load float, ptr %129, align 4, !tbaa !23
  %131 = getelementptr inbounds [4 x float], ptr %9, i64 0, i64 0
  %132 = load float, ptr %131, align 16, !tbaa !23
  %133 = call float @nsvg__minf(float noundef %130, float noundef %132)
  %134 = load ptr, ptr %4, align 8, !tbaa !77
  %135 = getelementptr inbounds float, ptr %134, i64 0
  store float %133, ptr %135, align 4, !tbaa !23
  %136 = load ptr, ptr %4, align 8, !tbaa !77
  %137 = getelementptr inbounds float, ptr %136, i64 1
  %138 = load float, ptr %137, align 4, !tbaa !23
  %139 = getelementptr inbounds [4 x float], ptr %9, i64 0, i64 1
  %140 = load float, ptr %139, align 4, !tbaa !23
  %141 = call float @nsvg__minf(float noundef %138, float noundef %140)
  %142 = load ptr, ptr %4, align 8, !tbaa !77
  %143 = getelementptr inbounds float, ptr %142, i64 1
  store float %141, ptr %143, align 4, !tbaa !23
  %144 = load ptr, ptr %4, align 8, !tbaa !77
  %145 = getelementptr inbounds float, ptr %144, i64 2
  %146 = load float, ptr %145, align 4, !tbaa !23
  %147 = getelementptr inbounds [4 x float], ptr %9, i64 0, i64 2
  %148 = load float, ptr %147, align 8, !tbaa !23
  %149 = call float @nsvg__maxf(float noundef %146, float noundef %148)
  %150 = load ptr, ptr %4, align 8, !tbaa !77
  %151 = getelementptr inbounds float, ptr %150, i64 2
  store float %149, ptr %151, align 4, !tbaa !23
  %152 = load ptr, ptr %4, align 8, !tbaa !77
  %153 = getelementptr inbounds float, ptr %152, i64 3
  %154 = load float, ptr %153, align 4, !tbaa !23
  %155 = getelementptr inbounds [4 x float], ptr %9, i64 0, i64 3
  %156 = load float, ptr %155, align 4, !tbaa !23
  %157 = call float @nsvg__maxf(float noundef %154, float noundef %156)
  %158 = load ptr, ptr %4, align 8, !tbaa !77
  %159 = getelementptr inbounds float, ptr %158, i64 3
  store float %157, ptr %159, align 4, !tbaa !23
  br label %160

160:                                              ; preds = %127, %110
  %161 = getelementptr inbounds [8 x float], ptr %8, i64 0, i64 6
  %162 = load float, ptr %161, align 8, !tbaa !23
  %163 = getelementptr inbounds [8 x float], ptr %8, i64 0, i64 0
  store float %162, ptr %163, align 16, !tbaa !23
  %164 = getelementptr inbounds [8 x float], ptr %8, i64 0, i64 7
  %165 = load float, ptr %164, align 4, !tbaa !23
  %166 = getelementptr inbounds [8 x float], ptr %8, i64 0, i64 1
  store float %165, ptr %166, align 4, !tbaa !23
  br label %167

167:                                              ; preds = %160
  %168 = load i32, ptr %10, align 4, !tbaa !10
  %169 = add nsw i32 %168, 3
  store i32 %169, ptr %10, align 4, !tbaa !10
  br label %32, !llvm.loop !285

170:                                              ; preds = %32
  br label %171

171:                                              ; preds = %170
  %172 = load ptr, ptr %7, align 8, !tbaa !73
  %173 = getelementptr inbounds nuw %struct.NSVGpath, ptr %172, i32 0, i32 4
  %174 = load ptr, ptr %173, align 8, !tbaa !79
  store ptr %174, ptr %7, align 8, !tbaa !73
  br label %15, !llvm.loop !286

175:                                              ; preds = %15
  call void @llvm.lifetime.end.p0(i64 4, ptr %11) #11
  call void @llvm.lifetime.end.p0(i64 4, ptr %10) #11
  call void @llvm.lifetime.end.p0(i64 16, ptr %9) #11
  call void @llvm.lifetime.end.p0(i64 32, ptr %8) #11
  call void @llvm.lifetime.end.p0(i64 8, ptr %7) #11
  ret void
}