; Function Attrs: nofree nounwind memory(readwrite, inaccessiblemem: write) uwtable
define internal fastcc void @nsvg__getLocalBounds(ptr noundef nonnull captures(none) %0, ptr noundef nonnull readonly captures(none) %1, ptr noundef nonnull readonly captures(none) %2) unnamed_addr #27 {
  %4 = alloca [8 x float], align 16
  %5 = alloca [4 x float], align 16
  call void @llvm.lifetime.start.p0(i64 32, ptr nonnull %4) #31
  call void @llvm.lifetime.start.p0(i64 16, ptr nonnull %5) #31
  %6 = getelementptr inbounds nuw i8, ptr %1, i64 320
  %.03741 = load ptr, ptr %6, align 8, !tbaa !60
  %.not42 = icmp eq ptr %.03741, null
  br i1 %.not42, label %._crit_edge47, label %.lr.ph46

.lr.ph46:                                         ; preds = %3
  %7 = getelementptr inbounds nuw i8, ptr %4, i64 4
  %8 = getelementptr inbounds nuw i8, ptr %2, i64 8
  %9 = getelementptr inbounds nuw i8, ptr %2, i64 16
  %10 = getelementptr inbounds nuw i8, ptr %2, i64 4
  %11 = getelementptr inbounds nuw i8, ptr %2, i64 12
  %12 = getelementptr inbounds nuw i8, ptr %2, i64 20
  %13 = getelementptr inbounds nuw i8, ptr %4, i64 8
  %14 = getelementptr inbounds nuw i8, ptr %4, i64 12
  %15 = getelementptr inbounds nuw i8, ptr %4, i64 16
  %16 = getelementptr inbounds nuw i8, ptr %4, i64 20
  %17 = getelementptr inbounds nuw i8, ptr %4, i64 24
  %18 = getelementptr inbounds nuw i8, ptr %4, i64 28
  %19 = getelementptr inbounds nuw i8, ptr %5, i64 4
  %20 = getelementptr inbounds nuw i8, ptr %0, i64 4
  %21 = getelementptr inbounds nuw i8, ptr %5, i64 8
  %22 = getelementptr inbounds nuw i8, ptr %0, i64 8
  %23 = getelementptr inbounds nuw i8, ptr %5, i64 12
  %24 = getelementptr inbounds nuw i8, ptr %0, i64 12
  br label %25

25:                                               ; preds = %.lr.ph46, %._crit_edge
  %.03744 = phi ptr [ %.03741, %.lr.ph46 ], [ %.037, %._crit_edge ]
  %.043 = phi i32 [ 1, %.lr.ph46 ], [ %.1.lcssa, %._crit_edge ]
  %26 = load ptr, ptr %.03744, align 8, !tbaa !63
  %27 = load float, ptr %26, align 4, !tbaa !28
  %28 = getelementptr inbounds nuw i8, ptr %26, i64 4
  %29 = load float, ptr %28, align 4, !tbaa !28
  %30 = load float, ptr %2, align 4, !tbaa !28
  %31 = load float, ptr %8, align 4, !tbaa !28
  %32 = fmul float %29, %31
  %33 = tail call float @llvm.fmuladd.f32(float %27, float %30, float %32)
  %34 = load float, ptr %9, align 4, !tbaa !28
  %35 = fadd float %34, %33
  store float %35, ptr %4, align 16, !tbaa !28
  %36 = load float, ptr %10, align 4, !tbaa !28
  %37 = load float, ptr %11, align 4, !tbaa !28
  %38 = fmul float %29, %37
  %39 = tail call float @llvm.fmuladd.f32(float %27, float %36, float %38)
  %40 = load float, ptr %12, align 4, !tbaa !28
  %41 = fadd float %40, %39
  %42 = getelementptr inbounds nuw i8, ptr %.03744, i64 8
  store float %41, ptr %7, align 4, !tbaa !28
  %43 = load i32, ptr %42, align 8, !tbaa !61
  %44 = icmp sgt i32 %43, 1
  br i1 %44, label %.lr.ph.preheader, label %._crit_edge

.lr.ph.preheader:                                 ; preds = %25
  %45 = icmp eq i32 %.043, 0
  br label %.lr.ph

.lr.ph:                                           ; preds = %.lr.ph.preheader, %116
  %indvars.iv = phi i64 [ 0, %.lr.ph.preheader ], [ %indvars.iv.next, %116 ]
  %.140 = phi i1 [ %45, %.lr.ph.preheader ], [ true, %116 ]
  %46 = load ptr, ptr %.03744, align 8, !tbaa !63
  %47 = shl i64 %indvars.iv, 33
  %sext = add i64 %47, 8589934592
  %48 = ashr exact i64 %sext, 30
  %49 = getelementptr inbounds i8, ptr %46, i64 %48
  %50 = load float, ptr %49, align 4, !tbaa !28
  %51 = shl i64 %indvars.iv, 33
  %sext49 = add i64 %51, 12884901888
  %52 = ashr exact i64 %sext49, 30
  %53 = getelementptr inbounds i8, ptr %46, i64 %52
  %54 = load float, ptr %53, align 4, !tbaa !28
  %55 = load float, ptr %2, align 4, !tbaa !28
  %56 = load float, ptr %8, align 4, !tbaa !28
  %57 = fmul float %54, %56
  %58 = tail call float @llvm.fmuladd.f32(float %50, float %55, float %57)
  %59 = load float, ptr %9, align 4, !tbaa !28
  %60 = fadd float %59, %58
  store float %60, ptr %13, align 8, !tbaa !28
  %61 = load float, ptr %10, align 4, !tbaa !28
  %62 = load float, ptr %11, align 4, !tbaa !28
  %63 = fmul float %54, %62
  %64 = tail call float @llvm.fmuladd.f32(float %50, float %61, float %63)
  %65 = load float, ptr %12, align 4, !tbaa !28
  %66 = fadd float %65, %64
  store float %66, ptr %14, align 4, !tbaa !28
  %indvars.iv.tr = trunc i64 %indvars.iv to i32
  %67 = shl i32 %indvars.iv.tr, 1
  %68 = add i32 %67, 4
  %69 = sext i32 %68 to i64
  %70 = getelementptr inbounds float, ptr %46, i64 %69
  %71 = load float, ptr %70, align 4, !tbaa !28
  %72 = add i32 %67, 5
  %73 = sext i32 %72 to i64
  %74 = getelementptr inbounds float, ptr %46, i64 %73
  %75 = load float, ptr %74, align 4, !tbaa !28
  %76 = fmul float %56, %75
  %77 = tail call float @llvm.fmuladd.f32(float %71, float %55, float %76)
  %78 = fadd float %59, %77
  store float %78, ptr %15, align 16, !tbaa !28
  %79 = fmul float %62, %75
  %80 = tail call float @llvm.fmuladd.f32(float %71, float %61, float %79)
  %81 = fadd float %65, %80
  store float %81, ptr %16, align 4, !tbaa !28
  %indvars.iv.next = add nuw nsw i64 %indvars.iv, 3
  %82 = shl nuw nsw i64 %indvars.iv.next, 1
  %83 = getelementptr inbounds nuw float, ptr %46, i64 %82
  %84 = load float, ptr %83, align 4, !tbaa !28
  %85 = or disjoint i64 %82, 1
  %86 = getelementptr inbounds nuw float, ptr %46, i64 %85
  %87 = load float, ptr %86, align 4, !tbaa !28
  %88 = fmul float %56, %87
  %89 = tail call float @llvm.fmuladd.f32(float %84, float %55, float %88)
  %90 = fadd float %59, %89
  store float %90, ptr %17, align 8, !tbaa !28
  %91 = fmul float %62, %87
  %92 = tail call float @llvm.fmuladd.f32(float %84, float %61, float %91)
  %93 = fadd float %65, %92
  store float %93, ptr %18, align 4, !tbaa !28
  call fastcc void @nsvg__curveBounds(ptr noundef %5, ptr noundef nonnull %4)
  br i1 %.140, label %99, label %94

94:                                               ; preds = %.lr.ph
  %95 = load float, ptr %5, align 16, !tbaa !28
  store float %95, ptr %0, align 4, !tbaa !28
  %96 = load float, ptr %19, align 4, !tbaa !28
  store float %96, ptr %20, align 4, !tbaa !28
  %97 = load float, ptr %21, align 8, !tbaa !28
  store float %97, ptr %22, align 4, !tbaa !28
  %98 = load float, ptr %23, align 4, !tbaa !28
  br label %116

99:                                               ; preds = %.lr.ph
  %100 = load float, ptr %0, align 4, !tbaa !28
  %101 = load float, ptr %5, align 16, !tbaa !28
  %102 = fcmp olt float %100, %101
  %103 = select i1 %102, float %100, float %101
  store float %103, ptr %0, align 4, !tbaa !28
  %104 = load float, ptr %20, align 4, !tbaa !28
  %105 = load float, ptr %19, align 4, !tbaa !28
  %106 = fcmp olt float %104, %105
  %107 = select i1 %106, float %104, float %105
  store float %107, ptr %20, align 4, !tbaa !28
  %108 = load float, ptr %22, align 4, !tbaa !28
  %109 = load float, ptr %21, align 8, !tbaa !28
  %110 = fcmp ogt float %108, %109
  %111 = select i1 %110, float %108, float %109
  store float %111, ptr %22, align 4, !tbaa !28
  %112 = load float, ptr %24, align 4, !tbaa !28
  %113 = load float, ptr %23, align 4, !tbaa !28
  %114 = fcmp ogt float %112, %113
  %115 = select i1 %114, float %112, float %113
  br label %116

116:                                              ; preds = %99, %94
  %storemerge = phi float [ %98, %94 ], [ %115, %99 ]
  store float %storemerge, ptr %24, align 4, !tbaa !28
  store float %90, ptr %4, align 16, !tbaa !28
  store float %93, ptr %7, align 4, !tbaa !28
  %117 = load i32, ptr %42, align 8, !tbaa !61
  %118 = add nsw i32 %117, -1
  %119 = sext i32 %118 to i64
  %120 = icmp slt i64 %indvars.iv.next, %119
  br i1 %120, label %.lr.ph, label %._crit_edge, !llvm.loop !268

._crit_edge:                                      ; preds = %116, %25
  %.1.lcssa = phi i32 [ %.043, %25 ], [ 0, %116 ]
  %121 = getelementptr inbounds nuw i8, ptr %.03744, i64 32
  %.037 = load ptr, ptr %121, align 8, !tbaa !60
  %.not = icmp eq ptr %.037, null
  br i1 %.not, label %._crit_edge47, label %25, !llvm.loop !269

._crit_edge47:                                    ; preds = %._crit_edge, %3
  call void @llvm.lifetime.end.p0(i64 16, ptr nonnull %5) #31
  call void @llvm.lifetime.end.p0(i64 32, ptr nonnull %4) #31
  ret void
}